target datalayout = "e-m:e-p270:32:32-p271:32:32-p272:64:64-i64:64-i128:128-f80:128-n8:16:32:64-S128"
target triple = "x86_64-pc-linux-gnu"

%struct.conmgr_callback_t = type { ptr, ptr, ptr }
%struct.conmgr_work_control_t = type { i32, i32, %struct.timespec, i32 }
%struct.timespec = type { i64, i64 }
%union.pthread_attr_t = type { i64, [48 x i8] }
%struct.conmgr_callback_args_t = type { ptr, i32 }
%struct.sockaddr_storage = type { i16, [118 x i8], i64 }
%struct.service_connection_args_t = type { i32, %struct.timespec, %struct.sockaddr_storage, i32 }

@.str.34 = private unnamed_addr constant [22 x i8] c"pthread_attr_init: %m\00", align 1
@.str.35 = private unnamed_addr constant [26 x i8] c"pthread_attr_setscope: %m\00", align 1
@.str.36 = private unnamed_addr constant [30 x i8] c"pthread_attr_setstacksize: %m\00", align 1
@.str.37 = private unnamed_addr constant [35 x i8] c"%s: pthread_attr_setdetachstate %m\00", align 1
@.str.38 = private unnamed_addr constant [28 x i8] c"%s: pthread_create error %m\00", align 1
@.str.39 = private unnamed_addr constant [55 x i8] c"pthread_attr_destroy failed, possible memory leak!: %m\00", align 1
@.str.154 = private unnamed_addr constant [50 x i8] c"%s: [%pA] detaching new thread for RPC connection\00", align 1
@__func__._try_service_connection = private unnamed_addr constant [24 x i8] c"_try_service_connection\00", align 1
@.str.155 = private unnamed_addr constant [41 x i8] c"%s: [%pA] deferring servicing connection\00", align 1

; Function Attrs: nounwind uwtable
define internal void @_try_service_connection(ptr %0, i32 %1, ptr noundef %2) #0 {
  %4 = alloca %struct.conmgr_callback_args_t, align 8
  %5 = alloca ptr, align 8
  %6 = alloca ptr, align 8
  %7 = alloca i32, align 4
  %8 = alloca i64, align 8
  %9 = alloca %union.pthread_attr_t, align 8
  %10 = alloca i32, align 4
  %11 = alloca i32, align 4
  %12 = alloca i32, align 4
  %13 = alloca %struct.timespec, align 8
  %14 = alloca %struct.timespec, align 8
  %15 = alloca %struct.timespec, align 8
  %16 = alloca %struct.timespec, align 8
  %17 = alloca %struct.conmgr_callback_t, align 8
  %18 = alloca %struct.conmgr_work_control_t, align 8
  %19 = getelementptr inbounds nuw { ptr, i32 }, ptr %4, i32 0, i32 0
  store ptr %0, ptr %19, align 8
  %20 = getelementptr inbounds nuw { ptr, i32 }, ptr %4, i32 0, i32 1
  store i32 %1, ptr %20, align 8
  store ptr %2, ptr %5, align 8
  call void @llvm.lifetime.start.p0(i64 8, ptr %6) #11
  %21 = load ptr, ptr %5, align 8
  store ptr %21, ptr %6, align 8
  call void @llvm.lifetime.start.p0(i64 4, ptr %7) #11
  store i32 -1, ptr %7, align 4
  %22 = call i32 @_increment_thd_count(i1 noundef zeroext false)
  store i32 %22, ptr %7, align 4
  %23 = icmp ne i32 %22, 0
  br i1 %23, label %92, label %24

24:                                               ; preds = %3
  br label %25

25:                                               ; preds = %24
  br label %26

26:                                               ; preds = %25
  %27 = call i32 @get_log_level()
  %28 = icmp sge i32 %27, 7
  br i1 %28, label %29, label %32

29:                                               ; preds = %26
  %30 = load ptr, ptr %6, align 8
  %31 = getelementptr inbounds nuw %struct.service_connection_args_t, ptr %30, i32 0, i32 2
  call void (i32, ptr, ...) @log_var(i32 noundef 7, ptr noundef @.str.154, ptr noundef @__func__._try_service_connection, ptr noundef %31)
  br label %32

32:                                               ; preds = %29, %26
  br label %33

33:                                               ; preds = %32
  br label %34

34:                                               ; preds = %33
  br label %35

35:                                               ; preds = %34
  br label %36

36:                                               ; preds = %35
  br label %37

37:                                               ; preds = %36
  call void @llvm.lifetime.start.p0(i64 8, ptr %8) #11
  call void @llvm.lifetime.start.p0(i64 56, ptr %9) #11
  call void @llvm.lifetime.start.p0(i64 4, ptr %10) #11
  br label %38

38:                                               ; preds = %37
  call void @llvm.lifetime.start.p0(i64 4, ptr %11) #11
  %39 = call i32 @pthread_attr_init(ptr noundef %9) #11
  store i32 %39, ptr %11, align 4
  %40 = load i32, ptr %11, align 4
  %41 = icmp ne i32 %40, 0
  br i1 %41, label %42, label %45

42:                                               ; preds = %38
  %43 = load i32, ptr %11, align 4
  %44 = call ptr @__errno_location() #15
  store i32 %43, ptr %44, align 4
  call void (ptr, ...) @fatal(ptr noundef @.str.34) #12
  unreachable

45:                                               ; preds = %38
  %46 = call i32 @pthread_attr_setscope(ptr noundef %9, i32 noundef 0) #11
  store i32 %46, ptr %11, align 4
  %47 = load i32, ptr %11, align 4
  %48 = icmp ne i32 %47, 0
  br i1 %48, label %49, label %53

49:                                               ; preds = %45
  %50 = load i32, ptr %11, align 4
  %51 = call ptr @__errno_location() #15
  store i32 %50, ptr %51, align 4
  %52 = call i32 (ptr, ...) @error(ptr noundef @.str.35)
  br label %53

53:                                               ; preds = %49, %45
  %54 = call i32 @pthread_attr_setstacksize(ptr noundef %9, i64 noundef 1048576) #11
  store i32 %54, ptr %11, align 4
  %55 = load i32, ptr %11, align 4
  %56 = icmp ne i32 %55, 0
  br i1 %56, label %57, label %61

57:                                               ; preds = %53
  %58 = load i32, ptr %11, align 4
  %59 = call ptr @__errno_location() #15
  store i32 %58, ptr %59, align 4
  %60 = call i32 (ptr, ...) @error(ptr noundef @.str.36)
  br label %61

61:                                               ; preds = %57, %53
  call void @llvm.lifetime.end.p0(i64 4, ptr %11) #11
  br label %62

62:                                               ; preds = %61
  br label %63

63:                                               ; preds = %62
  %64 = call i32 @pthread_attr_setdetachstate(ptr noundef %9, i32 noundef 1) #11
  store i32 %64, ptr %10, align 4
  %65 = load i32, ptr %10, align 4
  %66 = icmp ne i32 %65, 0
  br i1 %66, label %67, label %70

67:                                               ; preds = %63
  %68 = load i32, ptr %10, align 4
  %69 = call ptr @__errno_location() #15
  store i32 %68, ptr %69, align 4
  call void (ptr, ...) @fatal(ptr noundef @.str.37, ptr noundef @__func__._try_service_connection) #12
  unreachable

70:                                               ; preds = %63
  %71 = load ptr, ptr %6, align 8
  %72 = call i32 @pthread_create(ptr noundef %8, ptr noundef %9, ptr noundef @_service_connection, ptr noundef %71) #11
  store i32 %72, ptr %10, align 4
  %73 = load i32, ptr %10, align 4
  %74 = icmp ne i32 %73, 0
  br i1 %74, label %75, label %78

75:                                               ; preds = %70
  %76 = load i32, ptr %10, align 4
  %77 = call ptr @__errno_location() #15
  store i32 %76, ptr %77, align 4
  call void (ptr, ...) @fatal(ptr noundef @.str.38, ptr noundef @__func__._try_service_connection) #12
  unreachable

78:                                               ; preds = %70
  br label %79

79:                                               ; preds = %78
  call void @llvm.lifetime.start.p0(i64 4, ptr %12) #11
  %80 = call i32 @pthread_attr_destroy(ptr noundef %9) #11
  store i32 %80, ptr %12, align 4
  %81 = load i32, ptr %12, align 4
  %82 = icmp ne i32 %81, 0
  br i1 %82, label %83, label %87

83:                                               ; preds = %79
  %84 = load i32, ptr %12, align 4
  %85 = call ptr @__errno_location() #15
  store i32 %84, ptr %85, align 4
  %86 = call i32 (ptr, ...) @error(ptr noundef @.str.39)
  br label %87

87:                                               ; preds = %83, %79
  call void @llvm.lifetime.end.p0(i64 4, ptr %12) #11
  br label %88

88:                                               ; preds = %87
  br label %89

89:                                               ; preds = %88
  call void @llvm.lifetime.end.p0(i64 4, ptr %10) #11
  call void @llvm.lifetime.end.p0(i64 56, ptr %9) #11
  call void @llvm.lifetime.end.p0(i64 8, ptr %8) #11
  br label %90

90:                                               ; preds = %89
  br label %91

91:                                               ; preds = %90
  br label %165

92:                                               ; preds = %3
  br label %93

93:                                               ; preds = %92
  br label %94

94:                                               ; preds = %93
  %95 = call i32 @get_log_level()
  %96 = icmp sge i32 %95, 7
  br i1 %96, label %97, label %100

97:                                               ; preds = %94
  %98 = load ptr, ptr %6, align 8
  %99 = getelementptr inbounds nuw %struct.service_connection_args_t, ptr %98, i32 0, i32 2
  call void (i32, ptr, ...) @log_var(i32 noundef 7, ptr noundef @.str.155, ptr noundef @__func__._try_service_connection, ptr noundef %99)
  br label %100

100:                                              ; preds = %97, %94
  br label %101

101:                                              ; preds = %100
  br label %102

102:                                              ; preds = %101
  br label %103

103:                                              ; preds = %102
  br label %104

104:                                              ; preds = %103
  %105 = load ptr, ptr %6, align 8
  %106 = getelementptr inbounds nuw %struct.service_connection_args_t, ptr %105, i32 0, i32 1
  call void @llvm.lifetime.start.p0(i64 16, ptr %13) #11
  %107 = load ptr, ptr %6, align 8
  %108 = getelementptr inbounds nuw %struct.service_connection_args_t, ptr %107, i32 0, i32 1
  %109 = getelementptr inbounds nuw %struct.timespec, ptr %14, i32 0, i32 0
  store i64 0, ptr %109, align 8
  %110 = getelementptr inbounds nuw %struct.timespec, ptr %14, i32 0, i32 1
  store i64 1500, ptr %110, align 8
  %111 = getelementptr inbounds nuw { i64, i64 }, ptr %108, i32 0, i32 0
  %112 = load i64, ptr %111, align 8
  %113 = getelementptr inbounds nuw { i64, i64 }, ptr %108, i32 0, i32 1
  %114 = load i64, ptr %113, align 8
  %115 = getelementptr inbounds nuw { i64, i64 }, ptr %14, i32 0, i32 0
  %116 = load i64, ptr %115, align 8
  %117 = getelementptr inbounds nuw { i64, i64 }, ptr %14, i32 0, i32 1
  %118 = load i64, ptr %117, align 8
  %119 = call { i64, i64 } @timespec_add(i64 %112, i64 %114, i64 %116, i64 %118)
  %120 = getelementptr inbounds nuw { i64, i64 }, ptr %13, i32 0, i32 0
  %121 = extractvalue { i64, i64 } %119, 0
  store i64 %121, ptr %120, align 8
  %122 = getelementptr inbounds nuw { i64, i64 }, ptr %13, i32 0, i32 1
  %123 = extractvalue { i64, i64 } %119, 1
  store i64 %123, ptr %122, align 8
  call void @llvm.memcpy.p0.p0.i64(ptr align 8 %106, ptr align 8 %13, i64 16, i1 false)
  call void @llvm.lifetime.end.p0(i64 16, ptr %13) #11
  %124 = load ptr, ptr %6, align 8
  %125 = getelementptr inbounds nuw %struct.service_connection_args_t, ptr %124, i32 0, i32 1
  %126 = getelementptr inbounds nuw %struct.timespec, ptr %15, i32 0, i32 0
  store i64 1, ptr %126, align 8
  %127 = getelementptr inbounds nuw %struct.timespec, ptr %15, i32 0, i32 1
  store i64 0, ptr %127, align 8
  %128 = getelementptr inbounds nuw { i64, i64 }, ptr %125, i32 0, i32 0
  %129 = load i64, ptr %128, align 8
  %130 = getelementptr inbounds nuw { i64, i64 }, ptr %125, i32 0, i32 1
  %131 = load i64, ptr %130, align 8
  %132 = getelementptr inbounds nuw { i64, i64 }, ptr %15, i32 0, i32 0
  %133 = load i64, ptr %132, align 8
  %134 = getelementptr inbounds nuw { i64, i64 }, ptr %15, i32 0, i32 1
  %135 = load i64, ptr %134, align 8
  %136 = call zeroext i1 @timespec_is_after(i64 %129, i64 %131, i64 %133, i64 %135)
  br i1 %136, label %137, label %142

137:                                              ; preds = %104
  %138 = load ptr, ptr %6, align 8
  %139 = getelementptr inbounds nuw %struct.service_connection_args_t, ptr %138, i32 0, i32 1
  %140 = getelementptr inbounds nuw %struct.timespec, ptr %16, i32 0, i32 0
  store i64 1, ptr %140, align 8
  %141 = getelementptr inbounds nuw %struct.timespec, ptr %16, i32 0, i32 1
  store i64 0, ptr %141, align 8
  call void @llvm.memcpy.p0.p0.i64(ptr align 8 %139, ptr align 8 %16, i64 16, i1 false)
  br label %142

142:                                              ; preds = %137, %104
  %143 = getelementptr inbounds nuw %struct.conmgr_callback_t, ptr %17, i32 0, i32 0
  store ptr @_try_service_connection, ptr %143, align 8
  %144 = getelementptr inbounds nuw %struct.conmgr_callback_t, ptr %17, i32 0, i32 1
  %145 = load ptr, ptr %6, align 8
  store ptr %145, ptr %144, align 8
  %146 = getelementptr inbounds nuw %struct.conmgr_callback_t, ptr %17, i32 0, i32 2
  store ptr @__func__._try_service_connection, ptr %146, align 8
  %147 = getelementptr inbounds nuw %struct.conmgr_work_control_t, ptr %18, i32 0, i32 0
  store i32 1, ptr %147, align 8
  %148 = getelementptr inbounds nuw %struct.conmgr_work_control_t, ptr %18, i32 0, i32 1
  store i32 8, ptr %148, align 4
  %149 = getelementptr inbounds nuw %struct.conmgr_work_control_t, ptr %18, i32 0, i32 2
  %150 = load ptr, ptr %6, align 8
  %151 = getelementptr inbounds nuw %struct.service_connection_args_t, ptr %150, i32 0, i32 1
  %152 = getelementptr inbounds nuw %struct.timespec, ptr %151, i32 0, i32 0
  %153 = load i64, ptr %152, align 8
  %154 = load ptr, ptr %6, align 8
  %155 = getelementptr inbounds nuw %struct.service_connection_args_t, ptr %154, i32 0, i32 1
  %156 = getelementptr inbounds nuw %struct.timespec, ptr %155, i32 0, i32 0
  %157 = load i64, ptr %156, align 8
  %158 = call { i64, i64 } @conmgr_calc_work_time_delay(i64 noundef %153, i64 noundef %157)
  %159 = getelementptr inbounds nuw { i64, i64 }, ptr %149, i32 0, i32 0
  %160 = extractvalue { i64, i64 } %158, 0
  store i64 %160, ptr %159, align 8
  %161 = getelementptr inbounds nuw { i64, i64 }, ptr %149, i32 0, i32 1
  %162 = extractvalue { i64, i64 } %158, 1
  store i64 %162, ptr %161, align 8
  %163 = getelementptr inbounds nuw %struct.conmgr_work_control_t, ptr %18, i32 0, i32 3
  store i32 0, ptr %163, align 8
  %164 = getelementptr i8, ptr %18, i64 28
  call void @llvm.memset.p0.i64(ptr align 4 %164, i8 0, i64 4, i1 false)
  call void @conmgr_add_work(ptr noundef null, ptr noundef byval(%struct.conmgr_callback_t) align 8 %17, ptr noundef byval(%struct.conmgr_work_control_t) align 8 %18, ptr noundef @__func__._try_service_connection)
  br label %165

165:                                              ; preds = %142, %91
  call void @llvm.lifetime.end.p0(i64 4, ptr %7) #11
  call void @llvm.lifetime.end.p0(i64 8, ptr %6) #11
  ret void
}