; Function Attrs: nounwind uwtable
define internal void @_try_service_connection(ptr readnone captures(none) %0, i32 %1, ptr noundef %2) #0 {
  %4 = alloca i64, align 8
  %5 = alloca %union.pthread_attr_t, align 8
  %6 = alloca %struct.conmgr_callback_t, align 8
  %7 = alloca %struct.conmgr_work_control_t, align 8
  %8 = tail call fastcc i32 @_increment_thd_count(i1 noundef zeroext false)
  %.not = icmp eq i32 %8, 0
  %9 = tail call i32 @get_log_level() #18
  %10 = icmp sgt i32 %9, 6
  br i1 %.not, label %11, label %42

11:                                               ; preds = %3
  br i1 %10, label %12, label %14

12:                                               ; preds = %11
  %13 = getelementptr inbounds nuw i8, ptr %2, i64 24
  tail call void (i32, ptr, ...) @log_var(i32 noundef 7, ptr noundef nonnull @.str.154, ptr noundef nonnull @__func__._try_service_connection, ptr noundef nonnull %13) #18
  br label %14

14:                                               ; preds = %11, %12
  call void @llvm.lifetime.start.p0(i64 8, ptr nonnull %4) #18
  call void @llvm.lifetime.start.p0(i64 56, ptr nonnull %5) #18
  %15 = call i32 @pthread_attr_init(ptr noundef nonnull %5) #18
  %.not33 = icmp eq i32 %15, 0
  br i1 %.not33, label %18, label %16

16:                                               ; preds = %14
  %17 = tail call ptr @__errno_location() #21
  store i32 %15, ptr %17, align 4
  call void (ptr, ...) @fatal(ptr noundef nonnull @.str.34) #19
  unreachable

18:                                               ; preds = %14
  %19 = call i32 @pthread_attr_setscope(ptr noundef nonnull %5, i32 noundef 0) #18
  %.not34 = icmp eq i32 %19, 0
  br i1 %.not34, label %23, label %20

20:                                               ; preds = %18
  %21 = tail call ptr @__errno_location() #21
  store i32 %19, ptr %21, align 4
  %22 = call i32 (ptr, ...) @error(ptr noundef nonnull @.str.35) #18
  br label %23

23:                                               ; preds = %20, %18
  %24 = call i32 @pthread_attr_setstacksize(ptr noundef nonnull %5, i64 noundef 1048576) #18
  %.not35 = icmp eq i32 %24, 0
  br i1 %.not35, label %28, label %25

25:                                               ; preds = %23
  %26 = tail call ptr @__errno_location() #21
  store i32 %24, ptr %26, align 4
  %27 = call i32 (ptr, ...) @error(ptr noundef nonnull @.str.36) #18
  br label %28

28:                                               ; preds = %25, %23
  %29 = call i32 @pthread_attr_setdetachstate(ptr noundef nonnull %5, i32 noundef 1) #18
  %.not36 = icmp eq i32 %29, 0
  br i1 %.not36, label %32, label %30

30:                                               ; preds = %28
  %31 = tail call ptr @__errno_location() #21
  store i32 %29, ptr %31, align 4
  call void (ptr, ...) @fatal(ptr noundef nonnull @.str.37, ptr noundef nonnull @__func__._try_service_connection) #19
  unreachable

32:                                               ; preds = %28
  %33 = call i32 @pthread_create(ptr noundef nonnull %4, ptr noundef nonnull %5, ptr noundef nonnull @_service_connection, ptr noundef %2) #18
  %.not37 = icmp eq i32 %33, 0
  br i1 %.not37, label %36, label %34

34:                                               ; preds = %32
  %35 = tail call ptr @__errno_location() #21
  store i32 %33, ptr %35, align 4
  call void (ptr, ...) @fatal(ptr noundef nonnull @.str.38, ptr noundef nonnull @__func__._try_service_connection) #19
  unreachable

36:                                               ; preds = %32
  %37 = call i32 @pthread_attr_destroy(ptr noundef nonnull %5) #18
  %.not38 = icmp eq i32 %37, 0
  br i1 %.not38, label %41, label %38

38:                                               ; preds = %36
  %39 = tail call ptr @__errno_location() #21
  store i32 %37, ptr %39, align 4
  %40 = call i32 (ptr, ...) @error(ptr noundef nonnull @.str.39) #18
  br label %41

41:                                               ; preds = %38, %36
  call void @llvm.lifetime.end.p0(i64 56, ptr nonnull %5) #18
  call void @llvm.lifetime.end.p0(i64 8, ptr nonnull %4) #18
  br label %67

42:                                               ; preds = %3
  br i1 %10, label %43, label %45

43:                                               ; preds = %42
  %44 = getelementptr inbounds nuw i8, ptr %2, i64 24
  tail call void (i32, ptr, ...) @log_var(i32 noundef 7, ptr noundef nonnull @.str.155, ptr noundef nonnull @__func__._try_service_connection, ptr noundef nonnull %44) #18
  br label %45

45:                                               ; preds = %43, %42
  %46 = getelementptr inbounds nuw i8, ptr %2, i64 8
  %47 = load i64, ptr %46, align 8
  %48 = getelementptr inbounds nuw i8, ptr %2, i64 16
  %49 = load i64, ptr %48, align 8
  %50 = tail call { i64, i64 } @timespec_add(i64 %47, i64 %49, i64 0, i64 1500) #18
  %51 = extractvalue { i64, i64 } %50, 0
  %52 = extractvalue { i64, i64 } %50, 1
  store i64 %51, ptr %46, align 8
  store i64 %52, ptr %48, align 8
  %53 = tail call zeroext i1 @timespec_is_after(i64 %51, i64 %52, i64 1, i64 0) #18
  br i1 %53, label %54, label %._crit_edge

._crit_edge:                                      ; preds = %45
  %.pre = load i64, ptr %46, align 8
  br label %55

54:                                               ; preds = %45
  store i64 1, ptr %46, align 8
  store i64 0, ptr %48, align 8
  br label %55

55:                                               ; preds = %._crit_edge, %54
  %56 = phi i64 [ %.pre, %._crit_edge ], [ 1, %54 ]
  store ptr @_try_service_connection, ptr %6, align 8
  %57 = getelementptr inbounds nuw i8, ptr %6, i64 8
  store ptr %2, ptr %57, align 8
  %58 = getelementptr inbounds nuw i8, ptr %6, i64 16
  store ptr @__func__._try_service_connection, ptr %58, align 8
  store i32 1, ptr %7, align 8
  %59 = getelementptr inbounds nuw i8, ptr %7, i64 4
  store i32 8, ptr %59, align 4
  %60 = getelementptr inbounds nuw i8, ptr %7, i64 8
  %61 = tail call { i64, i64 } @conmgr_calc_work_time_delay(i64 noundef %56, i64 noundef %56) #18
  %62 = extractvalue { i64, i64 } %61, 0
  store i64 %62, ptr %60, align 8
  %63 = getelementptr inbounds nuw i8, ptr %7, i64 16
  %64 = extractvalue { i64, i64 } %61, 1
  store i64 %64, ptr %63, align 8
  %65 = getelementptr inbounds nuw i8, ptr %7, i64 24
  store i32 0, ptr %65, align 8
  %66 = getelementptr inbounds nuw i8, ptr %7, i64 28
  store i32 0, ptr %66, align 4
  tail call void @conmgr_add_work(ptr noundef null, ptr noundef nonnull byval(%struct.conmgr_callback_t) align 8 %6, ptr noundef nonnull byval(%struct.conmgr_work_control_t) align 8 %7, ptr noundef nonnull @__func__._try_service_connection) #18
  br label %67

67:                                               ; preds = %55, %41
  ret void
}